; Function Attrs: nounwind uwtable
define ptr @l_Array_mapMUnsafe_map___at_Lake_LeanLibConfig_mkDeclFields___spec__18(i64 noundef %0, i64 noundef %1, ptr noundef %2) local_unnamed_addr #0 {
  %.not39 = icmp ult i64 %1, %0
  br i1 %.not39, label %.lr.ph, label %._crit_edge

.lr.ph:                                           ; preds = %3, %47
  %.01841 = phi i64 [ %31, %47 ], [ %1, %3 ]
  %.02040 = phi ptr [ %.0.i.i28, %47 ], [ %2, %3 ]
  %4 = getelementptr inbounds nuw i8, ptr %.02040, i64 24
  %5 = getelementptr inbounds nuw [0 x ptr], ptr %4, i64 0, i64 %.01841
  %6 = load ptr, ptr %5, align 8, !tbaa !12
  %7 = ptrtoint ptr %6 to i64
  %8 = and i64 %7, 1
  %.not.i = icmp eq i64 %8, 0
  br i1 %.not.i, label %9, label %lean_array_uget.exit

9:                                                ; preds = %.lr.ph
  %.val.i.i = load i32, ptr %6, align 4, !tbaa !8
  %10 = icmp sgt i32 %.val.i.i, 0
  br i1 %10, label %11, label %13, !prof !11

11:                                               ; preds = %9
  %12 = add nuw i32 %.val.i.i, 1
  store i32 %12, ptr %6, align 4, !tbaa !8
  br label %lean_array_uget.exit

13:                                               ; preds = %9
  %.not.i.i = icmp eq i32 %.val.i.i, 0
  br i1 %.not.i.i, label %lean_array_uget.exit, label %14

14:                                               ; preds = %13
  tail call void @lean_inc_ref_cold(ptr noundef nonnull %6) #6
  br label %lean_array_uget.exit

lean_array_uget.exit:                             ; preds = %.lr.ph, %11, %13, %14
  %.val.i.i23 = load i32, ptr %.02040, align 4, !tbaa !8
  %15 = icmp eq i32 %.val.i.i23, 1
  br i1 %15, label %lean_ensure_exclusive_array.exit.i, label %16

16:                                               ; preds = %lean_array_uget.exit
  %17 = tail call ptr @lean_copy_expand_array(ptr noundef nonnull %.02040, i1 noundef zeroext false) #6
  br label %lean_ensure_exclusive_array.exit.i

lean_ensure_exclusive_array.exit.i:               ; preds = %16, %lean_array_uget.exit
  %.0.i.i = phi ptr [ %17, %16 ], [ %.02040, %lean_array_uget.exit ]
  %18 = getelementptr inbounds nuw i8, ptr %.0.i.i, i64 24
  %19 = getelementptr inbounds nuw ptr, ptr %18, i64 %.01841
  %20 = load ptr, ptr %19, align 8, !tbaa !12
  %21 = ptrtoint ptr %20 to i64
  %22 = and i64 %21, 1
  %.not.i24 = icmp eq i64 %22, 0
  br i1 %.not.i24, label %23, label %lean_array_uset.exit

23:                                               ; preds = %lean_ensure_exclusive_array.exit.i
  %24 = load i32, ptr %20, align 4, !tbaa !8
  %25 = icmp sgt i32 %24, 1
  br i1 %25, label %26, label %28, !prof !11

26:                                               ; preds = %23
  %27 = add nsw i32 %24, -1
  store i32 %27, ptr %20, align 4, !tbaa !8
  br label %lean_array_uset.exit

28:                                               ; preds = %23
  %.not.i.i25 = icmp eq i32 %24, 0
  br i1 %.not.i.i25, label %lean_array_uset.exit, label %29

29:                                               ; preds = %28
  tail call void @lean_dec_ref_cold(ptr noundef nonnull %20) #6
  br label %lean_array_uset.exit

lean_array_uset.exit:                             ; preds = %lean_ensure_exclusive_array.exit.i, %26, %28, %29
  store ptr inttoptr (i64 1 to ptr), ptr %19, align 8, !tbaa !12
  %30 = tail call ptr @l_Lake_Glob_toLean(ptr noundef %6)
  %31 = add nuw i64 %.01841, 1
  %.val.i.i26 = load i32, ptr %.0.i.i, align 4, !tbaa !8
  %32 = icmp eq i32 %.val.i.i26, 1
  br i1 %32, label %lean_ensure_exclusive_array.exit.i27, label %33

33:                                               ; preds = %lean_array_uset.exit
  %34 = tail call ptr @lean_copy_expand_array(ptr noundef nonnull %.0.i.i, i1 noundef zeroext false) #6
  br label %lean_ensure_exclusive_array.exit.i27

lean_ensure_exclusive_array.exit.i27:             ; preds = %33, %lean_array_uset.exit
  %.0.i.i28 = phi ptr [ %34, %33 ], [ %.0.i.i, %lean_array_uset.exit ]
  %35 = getelementptr inbounds nuw i8, ptr %.0.i.i28, i64 24
  %36 = getelementptr inbounds nuw ptr, ptr %35, i64 %.01841
  %37 = load ptr, ptr %36, align 8, !tbaa !12
  %38 = ptrtoint ptr %37 to i64
  %39 = and i64 %38, 1
  %.not.i29 = icmp eq i64 %39, 0
  br i1 %.not.i29, label %40, label %47

40:                                               ; preds = %lean_ensure_exclusive_array.exit.i27
  %41 = load i32, ptr %37, align 4, !tbaa !8
  %42 = icmp sgt i32 %41, 1
  br i1 %42, label %43, label %45, !prof !11

43:                                               ; preds = %40
  %44 = add nsw i32 %41, -1
  store i32 %44, ptr %37, align 4, !tbaa !8
  br label %47

45:                                               ; preds = %40
  %.not.i.i30 = icmp eq i32 %41, 0
  br i1 %.not.i.i30, label %47, label %46

46:                                               ; preds = %45
  tail call void @lean_dec_ref_cold(ptr noundef nonnull %37) #6
  br label %47

47:                                               ; preds = %46, %45, %43, %lean_ensure_exclusive_array.exit.i27
  store ptr %30, ptr %36, align 8, !tbaa !12
  %exitcond.not = icmp eq i64 %31, %0
  br i1 %exitcond.not, label %._crit_edge, label %.lr.ph

._crit_edge:                                      ; preds = %47, %3
  %.020.lcssa = phi ptr [ %2, %3 ], [ %.0.i.i28, %47 ]
  ret ptr %.020.lcssa
}